target datalayout = "e-m:e-p270:32:32-p271:32:32-p272:64:64-i64:64-i128:128-f80:128-n8:16:32:64-S128"
target triple = "x86_64-pc-linux-gnu"

%struct.ERR_string_data_st = type { i64, ptr }

@UI_str_reasons = internal constant [14 x %struct.ERR_string_data_st] [%struct.ERR_string_data_st { i64 335544424, ptr @.str }, %struct.ERR_string_data_st { i64 335544422, ptr @.str.1 }, %struct.ERR_string_data_st { i64 335544423, ptr @.str.2 }, %struct.ERR_string_data_st { i64 335544425, ptr @.str.3 }, %struct.ERR_string_data_st { i64 335544427, ptr @.str.4 }, %struct.ERR_string_data_st { i64 335544420, ptr @.str.5 }, %struct.ERR_string_data_st { i64 335544421, ptr @.str.6 }, %struct.ERR_string_data_st { i64 335544429, ptr @.str.7 }, %struct.ERR_string_data_st { i64 335544430, ptr @.str.8 }, %struct.ERR_string_data_st { i64 335544431, ptr @.str.9 }, %struct.ERR_string_data_st { i64 335544426, ptr @.str.10 }, %struct.ERR_string_data_st { i64 335544428, ptr @.str.11 }, %struct.ERR_string_data_st { i64 335544432, ptr @.str.12 }, %struct.ERR_string_data_st zeroinitializer], align 16
@.str = private unnamed_addr constant [32 x i8] c"common ok and cancel characters\00", align 1
@.str.1 = private unnamed_addr constant [16 x i8] c"index too large\00", align 1
@.str.2 = private unnamed_addr constant [16 x i8] c"index too small\00", align 1
@.str.3 = private unnamed_addr constant [17 x i8] c"no result buffer\00", align 1
@.str.4 = private unnamed_addr constant [17 x i8] c"processing error\00", align 1
@.str.5 = private unnamed_addr constant [17 x i8] c"result too large\00", align 1
@.str.6 = private unnamed_addr constant [17 x i8] c"result too small\00", align 1
@.str.7 = private unnamed_addr constant [17 x i8] c"sys$assign error\00", align 1
@.str.8 = private unnamed_addr constant [17 x i8] c"sys$dassgn error\00", align 1
@.str.9 = private unnamed_addr constant [15 x i8] c"sys$qiow error\00", align 1
@.str.10 = private unnamed_addr constant [24 x i8] c"unknown control command\00", align 1
@.str.11 = private unnamed_addr constant [27 x i8] c"unknown ttyget errno value\00", align 1
@.str.12 = private unnamed_addr constant [34 x i8] c"user data duplication unsupported\00", align 1

; Function Attrs: nounwind uwtable
define i32 @ossl_err_load_UI_strings() #0 {
  %1 = call ptr @ERR_reason_error_string(i64 noundef 335544424)
  %2 = icmp eq ptr %1, null
  br i1 %2, label %3, label %5

3:                                                ; preds = %0
  %4 = call i32 @ERR_load_strings_const(ptr noundef @UI_str_reasons)
  br label %5

5:                                                ; preds = %3, %0
  ret i32 1
}

declare ptr @ERR_reason_error_string(i64 noundef) #1

declare i32 @ERR_load_strings_const(ptr noundef) #1


!llvm.module.flags = !{!0, !1, !2}

!0 = !{i32 1, !"wchar_size", i32 4}
!1 = !{i32 8, !"PIC Level", i32 2}
!2 = !{i32 7, !"uwtable", i32 2}
